; Function Attrs: inlinehint mustprogress nounwind uwtable
define internal void @_ZN9grpc_core12_GLOBAL__N_125XdsClusterManagerLbConfigD2Ev(ptr noundef nonnull readonly align 8 captures(none) dereferenceable(64) %0) unnamed_addr #19 align 2 personality ptr @__gxx_personality_v0 {
  %2 = getelementptr inbounds nuw i8, ptr %0, i64 32
  %.val = load ptr, ptr %2, align 8, !tbaa !39
  invoke fastcc void @_ZNSt8_Rb_treeINSt7__cxx1112basic_stringIcSt11char_traitsIcESaIcEEESt4pairIKS5_N9grpc_core12_GLOBAL__N_125XdsClusterManagerLbConfig5ChildEESt10_Select1stISC_ESt4lessIS5_ESaISC_EE8_M_eraseEPSt13_Rb_tree_nodeISC_E(ptr noundef %.val)
          to label %_ZNSt3mapINSt7__cxx1112basic_stringIcSt11char_traitsIcESaIcEEEN9grpc_core12_GLOBAL__N_125XdsClusterManagerLbConfig5ChildESt4lessIS5_ESaISt4pairIKS5_S9_EEED2Ev.exit unwind label %3

3:                                                ; preds = %1
  %4 = landingpad { ptr, i32 }
          catch ptr null
  %5 = extractvalue { ptr, i32 } %4, 0
  tail call void @__clang_call_terminate(ptr %5) #39
  unreachable

_ZNSt3mapINSt7__cxx1112basic_stringIcSt11char_traitsIcESaIcEEEN9grpc_core12_GLOBAL__N_125XdsClusterManagerLbConfig5ChildESt4lessIS5_ESaISt4pairIKS5_S9_EEED2Ev.exit: ; preds = %1
  ret void
}